; Function Attrs: mustprogress uwtable
define hidden void @_ZN6google8protobuf8compiler3cpp21FlattenMessagesInFileEPKNS0_14FileDescriptorEPSt6vectorIPKNS0_10DescriptorESaIS9_EE(ptr nocapture noundef readonly %file, ptr noundef %result) local_unnamed_addr #4 {
entry:
  %result.addr = alloca ptr, align 8
  %ref.tmp = alloca %class.anon, align 8
  store ptr %result, ptr %result.addr, align 8
  %message_type_count_.i = getelementptr inbounds i8, ptr %file, i64 60
  %0 = load i32, ptr %message_type_count_.i, align 4
  %cmp4 = icmp sgt i32 %0, 0
  br i1 %cmp4, label %for.body.lr.ph, label %for.end

for.body.lr.ph:                                   ; preds = %entry
  %message_types_.i = getelementptr inbounds i8, ptr %file, i64 96
  br label %for.body

for.body:                                         ; preds = %for.body.lr.ph, %for.body
  %indvars.iv = phi i64 [ 0, %for.body.lr.ph ], [ %indvars.iv.next, %for.body ]
  %1 = load ptr, ptr %message_types_.i, align 8
  %add.ptr.i = getelementptr inbounds %"class.google::protobuf::Descriptor", ptr %1, i64 %indvars.iv
  store ptr %result.addr, ptr %ref.tmp, align 8
  call fastcc void @"_ZN6google8protobuf8compiler3cpp14ForEachMessageIZNS2_21FlattenMessagesInFileEPKNS0_14FileDescriptorEPSt6vectorIPKNS0_10DescriptorESaISA_EEE3$_0EEvSA_OT_"(ptr noundef %add.ptr.i, ptr noundef nonnull align 8 dereferenceable(8) %ref.tmp)
  %indvars.iv.next = add nuw nsw i64 %indvars.iv, 1
  %2 = load i32, ptr %message_type_count_.i, align 4
  %3 = sext i32 %2 to i64
  %cmp = icmp slt i64 %indvars.iv.next, %3
  br i1 %cmp, label %for.body, label %for.end, !llvm.loop !183

for.end:                                          ; preds = %for.body, %entry
  ret void
}